	.section	__TEXT,__text,regular,pure_instructions
	.build_version macos, 10, 14	sdk_version 10, 14
	.globl	__Z13string_lengthPc    ## -- Begin function _Z13string_lengthPc
	.p2align	4, 0x90
__Z13string_lengthPc:                   ## @_Z13string_lengthPc
	.cfi_startproc
## %bb.0:
	pushq	%rbp
	.cfi_def_cfa_offset 16
	.cfi_offset %rbp, -16
	movq	%rsp, %rbp
	.cfi_def_cfa_register %rbp
	subq	$64, %rsp
	movq	%rdi, -16(%rbp)
	movq	-16(%rbp), %rdi
	movq	%rdi, -48(%rbp)         ## 8-byte Spill
	callq	__ZNSt3__1L15__get_nullptr_tEv
	movq	%rax, -24(%rbp)
	leaq	-24(%rbp), %rdi
	callq	__ZNKSt3__19nullptr_tcvPT_IcEEv
	movq	-48(%rbp), %rdi         ## 8-byte Reload
	cmpq	%rax, %rdi
	jne	LBB0_2
## %bb.1:
	movq	$0, -8(%rbp)
	jmp	LBB0_6
LBB0_2:
	movl	$0, -28(%rbp)
LBB0_3:                                 ## =>This Inner Loop Header: Depth=1
	movq	-16(%rbp), %rax
	movq	%rax, -56(%rbp)         ## 8-byte Spill
	callq	__ZNSt3__1L15__get_nullptr_tEv
	movq	%rax, -40(%rbp)
	leaq	-40(%rbp), %rdi
	callq	__ZNKSt3__19nullptr_tcvPT_IcEEv
	movq	-56(%rbp), %rdi         ## 8-byte Reload
	cmpq	%rax, %rdi
	je	LBB0_5
## %bb.4:                               ##   in Loop: Header=BB0_3 Depth=1
	movl	-28(%rbp), %eax
	addl	$1, %eax
	movl	%eax, -28(%rbp)
	movq	-16(%rbp), %rcx
	addq	$1, %rcx
	movq	%rcx, -16(%rbp)
	jmp	LBB0_3
LBB0_5:
	movslq	-28(%rbp), %rax
	movq	%rax, -8(%rbp)
LBB0_6:
	movq	-8(%rbp), %rax
	addq	$64, %rsp
	popq	%rbp
	retq
	.cfi_endproc
                                        ## -- End function
	.p2align	4, 0x90         ## -- Begin function _ZNSt3__1L15__get_nullptr_tEv
__ZNSt3__1L15__get_nullptr_tEv:         ## @_ZNSt3__1L15__get_nullptr_tEv
	.cfi_startproc
## %bb.0:
	pushq	%rbp
	.cfi_def_cfa_offset 16
	.cfi_offset %rbp, -16
	movq	%rsp, %rbp
	.cfi_def_cfa_register %rbp
	subq	$16, %rsp
	leaq	-8(%rbp), %rdi
	movq	$-1, %rsi
	callq	__ZNSt3__19nullptr_tC1EMNS0_5__natEi
	movq	-8(%rbp), %rax
	addq	$16, %rsp
	popq	%rbp
	retq
	.cfi_endproc
                                        ## -- End function
	.p2align	4, 0x90         ## -- Begin function _ZNKSt3__19nullptr_tcvPT_IcEEv
__ZNKSt3__19nullptr_tcvPT_IcEEv:        ## @_ZNKSt3__19nullptr_tcvPT_IcEEv
	.cfi_startproc
## %bb.0:
	pushq	%rbp
	.cfi_def_cfa_offset 16
	.cfi_offset %rbp, -16
	movq	%rsp, %rbp
	.cfi_def_cfa_register %rbp
	xorl	%eax, %eax
                                        ## kill: def $rax killed $eax
	movq	%rdi, -8(%rbp)
	popq	%rbp
	retq
	.cfi_endproc
                                        ## -- End function
	.p2align	4, 0x90         ## -- Begin function _ZNSt3__19nullptr_tC1EMNS0_5__natEi
__ZNSt3__19nullptr_tC1EMNS0_5__natEi:   ## @_ZNSt3__19nullptr_tC1EMNS0_5__natEi
	.cfi_startproc
## %bb.0:
	pushq	%rbp
	.cfi_def_cfa_offset 16
	.cfi_offset %rbp, -16
	movq	%rsp, %rbp
	.cfi_def_cfa_register %rbp
	subq	$16, %rsp
	movq	%rdi, -8(%rbp)
	movq	%rsi, -16(%rbp)
	movq	-8(%rbp), %rdi
	movq	-16(%rbp), %rsi
	callq	__ZNSt3__19nullptr_tC2EMNS0_5__natEi
	addq	$16, %rsp
	popq	%rbp
	retq
	.cfi_endproc
                                        ## -- End function
	.p2align	4, 0x90         ## -- Begin function _ZNSt3__19nullptr_tC2EMNS0_5__natEi
__ZNSt3__19nullptr_tC2EMNS0_5__natEi:   ## @_ZNSt3__19nullptr_tC2EMNS0_5__natEi
	.cfi_startproc
## %bb.0:
	pushq	%rbp
	.cfi_def_cfa_offset 16
	.cfi_offset %rbp, -16
	movq	%rsp, %rbp
	.cfi_def_cfa_register %rbp
	movq	%rdi, -8(%rbp)
	movq	%rsi, -16(%rbp)
	movq	-8(%rbp), %rsi
	movq	$0, (%rsi)
	popq	%rbp
	retq
	.cfi_endproc
                                        ## -- End function

.subsections_via_symbols
